target datalayout = "e-m:e-p270:32:32-p271:32:32-p272:64:64-i64:64-i128:128-f80:128-n8:16:32:64-S128"
target triple = "x86_64-pc-linux-gnu"

%struct.xcgroup_t = type { ptr, ptr, ptr, i32, i32, i32 }
%struct.slurm_conf_t = type { i64, ptr, i16, ptr, ptr, ptr, ptr, ptr, i16, ptr, ptr, ptr, ptr, ptr, ptr, ptr, i16, ptr, ptr, ptr, ptr, i16, ptr, ptr, ptr, i64, ptr, ptr, ptr, ptr, i16, ptr, ptr, i16, i32, ptr, i32, ptr, i32, i32, ptr, ptr, i64, i64, ptr, i16, i16, ptr, i32, i32, ptr, i32, ptr, i32, i16, i16, i16, ptr, i16, i16, ptr, ptr, i32, i16, i16, ptr, i32, i16, ptr, ptr, ptr, ptr, i16, ptr, ptr, ptr, ptr, i32, ptr, ptr, ptr, ptr, i16, i16, ptr, i32, i32, i32, i16, i16, ptr, ptr, i16, ptr, ptr, i32, i32, i32, i32, i32, i64, i32, i32, i16, ptr, ptr, i32, ptr, ptr, ptr, i16, i32, ptr, ptr, i16, ptr, ptr, i32, i16, ptr, ptr, ptr, ptr, i32, i32, i16, i16, i32, ptr, i16, ptr, i32, i32, i32, i32, i32, i32, ptr, i16, ptr, ptr, i32, i16, ptr, i32, i16, i16, ptr, ptr, ptr, i16, ptr, ptr, ptr, ptr, i16, i16, ptr, i16, ptr, i16, ptr, i16, ptr, i16, ptr, ptr, ptr, ptr, i16, ptr, ptr, ptr, i32, ptr, i32, ptr, ptr, i16, ptr, ptr, i32, i16, ptr, ptr, i16, i16, ptr, i16, ptr, ptr, ptr, i32, ptr, i16, i16, ptr, ptr, ptr, ptr, ptr, ptr, ptr, ptr, i16, i32, i16, ptr, ptr, ptr, ptr, i32, ptr, ptr, ptr, i16, ptr, ptr, ptr, i16, ptr, i16, ptr, i16, i16, ptr }

@plugin_type = dso_local constant [10 x i8] c"cgroup/v2\00", align 1
@int_cg = internal global [9 x %struct.xcgroup_t] zeroinitializer, align 16
@slurm_conf = external global %struct.slurm_conf_t, align 8
@.str.29 = private unnamed_addr constant [2 x i8] c"1\00", align 1
@.str.101 = private unnamed_addr constant [44 x i8] c"cgroup/v2 cgroup.kill only supports SIGKILL\00", align 1
@.str.102 = private unnamed_addr constant [12 x i8] c"cgroup.kill\00", align 1
@.str.103 = private unnamed_addr constant [35 x i8] c"Writing 1 to %s/cgroup.kill failed\00", align 1
@.str.104 = private unnamed_addr constant [37 x i8] c"%s: %s: CGROUP: Sent signal %d to %s\00", align 1
@__func__.cgroup_p_signal = private unnamed_addr constant [16 x i8] c"cgroup_p_signal\00", align 1

; Function Attrs: nounwind uwtable
define dso_local i32 @cgroup_p_signal(i32 noundef %0) #0 {
  %2 = alloca i32, align 4
  %3 = alloca i32, align 4
  store i32 %0, ptr %3, align 4
  %4 = load i32, ptr %3, align 4
  %5 = icmp ne i32 %4, 9
  br i1 %5, label %6, label %8

6:                                                ; preds = %1
  %7 = call i32 (ptr, ...) @error(ptr noundef @.str.101)
  store i32 -1, ptr %2, align 4
  br label %30

8:                                                ; preds = %1
  %9 = call i32 @common_cgroup_set_param(ptr noundef getelementptr inbounds ([9 x %struct.xcgroup_t], ptr @int_cg, i64 0, i64 6), ptr noundef @.str.102, ptr noundef @.str.29)
  %10 = icmp ne i32 %9, 0
  br i1 %10, label %11, label %14

11:                                               ; preds = %8
  %12 = load ptr, ptr getelementptr inbounds nuw (%struct.xcgroup_t, ptr getelementptr inbounds ([9 x %struct.xcgroup_t], ptr @int_cg, i64 0, i64 6), i32 0, i32 2), align 16
  %13 = call i32 (ptr, ...) @error(ptr noundef @.str.103, ptr noundef %12)
  store i32 -1, ptr %2, align 4
  br label %30

14:                                               ; preds = %8
  br label %15

15:                                               ; preds = %14
  %16 = load i64, ptr getelementptr inbounds nuw (%struct.slurm_conf_t, ptr @slurm_conf, i32 0, i32 42), align 8
  %17 = and i64 %16, 36028797018963968
  %18 = icmp ne i64 %17, 0
  br i1 %18, label %19, label %28

19:                                               ; preds = %15
  br label %20

20:                                               ; preds = %19
  %21 = call i32 @get_log_level()
  %22 = icmp sge i32 %21, 4
  br i1 %22, label %23, label %26

23:                                               ; preds = %20
  %24 = load i32, ptr %3, align 4
  %25 = load ptr, ptr getelementptr inbounds nuw (%struct.xcgroup_t, ptr getelementptr inbounds ([9 x %struct.xcgroup_t], ptr @int_cg, i64 0, i64 6), i32 0, i32 2), align 16
  call void (i32, ptr, ...) @log_var(i32 noundef 4, ptr noundef @.str.104, ptr noundef @plugin_type, ptr noundef @__func__.cgroup_p_signal, i32 noundef %24, ptr noundef %25)
  br label %26

26:                                               ; preds = %23, %20
  br label %27

27:                                               ; preds = %26
  br label %28

28:                                               ; preds = %27, %15
  br label %29

29:                                               ; preds = %28
  store i32 0, ptr %2, align 4
  br label %30

30:                                               ; preds = %29, %11, %6
  %31 = load i32, ptr %2, align 4
  ret i32 %31
}