; Function Attrs: nounwind uwtable
define dso_local range(i32 -1, 1) i32 @cgroup_p_signal(i32 noundef %0) local_unnamed_addr #0 {
  %.not = icmp eq i32 %0, 9
  br i1 %.not, label %4, label %2

2:                                                ; preds = %1
  %3 = tail call i32 (ptr, ...) @error(ptr noundef nonnull @.str.101) #17
  br label %17

4:                                                ; preds = %1
  %5 = tail call i32 @common_cgroup_set_param(ptr noundef nonnull getelementptr inbounds nuw (i8, ptr @int_cg, i64 240), ptr noundef nonnull @.str.102, ptr noundef nonnull @.str.29) #17
  %.not4 = icmp eq i32 %5, 0
  br i1 %.not4, label %9, label %6

6:                                                ; preds = %4
  %7 = load ptr, ptr getelementptr inbounds nuw (i8, ptr @int_cg, i64 256), align 16
  %8 = tail call i32 (ptr, ...) @error(ptr noundef nonnull @.str.103, ptr noundef %7) #17
  br label %17

9:                                                ; preds = %4
  %10 = load i64, ptr getelementptr inbounds nuw (i8, ptr @slurm_conf, i64 320), align 8
  %11 = and i64 %10, 36028797018963968
  %.not5 = icmp eq i64 %11, 0
  br i1 %.not5, label %17, label %12

12:                                               ; preds = %9
  %13 = tail call i32 @get_log_level() #17
  %14 = icmp sgt i32 %13, 3
  br i1 %14, label %15, label %17

15:                                               ; preds = %12
  %16 = load ptr, ptr getelementptr inbounds nuw (i8, ptr @int_cg, i64 256), align 16
  tail call void (i32, ptr, ...) @log_var(i32 noundef 4, ptr noundef nonnull @.str.104, ptr noundef nonnull @plugin_type, ptr noundef nonnull @__func__.cgroup_p_signal, i32 noundef 9, ptr noundef %16) #17
  br label %17

17:                                               ; preds = %15, %12, %9, %6, %2
  %.0 = phi i32 [ -1, %2 ], [ -1, %6 ], [ 0, %9 ], [ 0, %12 ], [ 0, %15 ]
  ret i32 %.0
}